; Function Attrs: nounwind uwtable
define ptr @l_Lean_profileitM___rarg(ptr noundef %0, ptr readnone captures(none) %1, ptr noundef %2, ptr noundef %3, ptr noundef %4, ptr noundef %5) #0 {
  tail call void @lean_inc_heartbeat() #3
  %7 = tail call noalias ptr @mi_malloc_small(i64 noundef 48) #3
  %8 = icmp eq ptr %7, null
  br i1 %8, label %9, label %lean_alloc_closure.exit

9:                                                ; preds = %6
  tail call void @lean_internal_panic_out_of_memory() #4
  unreachable

lean_alloc_closure.exit:                          ; preds = %6
  %10 = getelementptr inbounds nuw i8, ptr %7, i64 4
  store i32 1, ptr %7, align 4, !tbaa !10
  store i32 -184549328, ptr %10, align 4
  %11 = getelementptr inbounds nuw i8, ptr %7, i64 8
  store ptr @l_Lean_profileitM___rarg___lambda__1___boxed, ptr %11, align 8, !tbaa !4
  %12 = getelementptr inbounds nuw i8, ptr %7, i64 16
  store i16 6, ptr %12, align 8, !tbaa !17
  %13 = getelementptr inbounds nuw i8, ptr %7, i64 18
  store i16 3, ptr %13, align 2, !tbaa !17
  %14 = getelementptr inbounds nuw i8, ptr %7, i64 24
  store ptr %2, ptr %14, align 8, !tbaa !4
  %15 = getelementptr inbounds nuw i8, ptr %7, i64 32
  store ptr %3, ptr %15, align 8, !tbaa !4
  %16 = getelementptr inbounds nuw i8, ptr %7, i64 40
  store ptr %5, ptr %16, align 8, !tbaa !4
  %17 = tail call ptr @lean_apply_3(ptr noundef %0, ptr noundef nonnull inttoptr (i64 1 to ptr), ptr noundef nonnull %7, ptr noundef %4) #3
  ret ptr %17
}